; Function Attrs: mustprogress nounwind uwtable
define hidden noundef zeroext i1 @_ZN24G1ConcurrentRefineThread19try_refinement_stepEm(ptr noundef nonnull align 8 dereferenceable(1104) %0, i64 noundef %1) local_unnamed_addr #0 align 2 {
  %3 = getelementptr inbounds i8, ptr %0, i64 1096
  %4 = load ptr, ptr %3, align 8
  %5 = getelementptr inbounds i8, ptr %0, i64 1088
  %6 = load i32, ptr %5, align 8
  %7 = getelementptr inbounds i8, ptr %0, i64 1048
  %8 = tail call noundef zeroext i1 @_ZN18G1ConcurrentRefine19try_refinement_stepEjmP23G1ConcurrentRefineStats(ptr noundef nonnull align 8 dereferenceable(136) %4, i32 noundef %6, i64 noundef %1, ptr noundef nonnull %7) #9
  ret i1 %8
}